; Function Attrs: nofree norecurse nosync nounwind memory(argmem: read) uwtable
define { ptr, i64 } @stbtt__cff_index_get(ptr %0, i64 %1, i32 noundef %2) local_unnamed_addr #7 {
  %.sroa.18.8.extract.shift = lshr i64 %1, 32
  %.sroa.18.8.extract.trunc = trunc nuw i64 %.sroa.18.8.extract.shift to i32
  %4 = tail call i32 @llvm.smin.i32(i32 %.sroa.18.8.extract.trunc, i32 0)
  br label %5

5:                                                ; preds = %stbtt__buf_get8.exit.i, %3
  %.sroa.6.0 = phi i32 [ %4, %3 ], [ %.sroa.6.1, %stbtt__buf_get8.exit.i ]
  %6 = phi i32 [ %4, %3 ], [ %14, %stbtt__buf_get8.exit.i ]
  %.07.i = phi i32 [ 0, %3 ], [ %16, %stbtt__buf_get8.exit.i ]
  %.056.i = phi i32 [ 0, %3 ], [ %15, %stbtt__buf_get8.exit.i ]
  %7 = shl i32 %.056.i, 8
  %.not.i.i = icmp slt i32 %6, %.sroa.18.8.extract.trunc
  br i1 %.not.i.i, label %8, label %stbtt__buf_get8.exit.i

8:                                                ; preds = %5
  %9 = add nsw i32 %6, 1
  %10 = sext i32 %6 to i64
  %11 = getelementptr inbounds i8, ptr %0, i64 %10
  %12 = load i8, ptr %11, align 1, !tbaa !12
  %13 = zext i8 %12 to i32
  br label %stbtt__buf_get8.exit.i

stbtt__buf_get8.exit.i:                           ; preds = %8, %5
  %.sroa.6.1 = phi i32 [ %9, %8 ], [ %.sroa.6.0, %5 ]
  %14 = phi i32 [ %9, %8 ], [ %6, %5 ]
  %.0.i.i = phi i32 [ %13, %8 ], [ 0, %5 ]
  %15 = or disjoint i32 %.0.i.i, %7
  %16 = add nuw nsw i32 %.07.i, 1
  %exitcond.not.i = icmp eq i32 %16, 2
  br i1 %exitcond.not.i, label %stbtt__buf_get.exit, label %5, !llvm.loop !13

stbtt__buf_get.exit:                              ; preds = %stbtt__buf_get8.exit.i
  %.not.i = icmp slt i32 %.sroa.6.1, %.sroa.18.8.extract.trunc
  br i1 %.not.i, label %stbtt__buf_get8.exit, label %stbtt__buf_get.exit26

stbtt__buf_get8.exit:                             ; preds = %stbtt__buf_get.exit
  %17 = sext i32 %.sroa.6.1 to i64
  %18 = getelementptr inbounds i8, ptr %0, i64 %17
  %19 = load i8, ptr %18, align 1, !tbaa !12
  %20 = zext i8 %19 to i32
  %.not = icmp eq i8 %19, 0
  br i1 %.not, label %stbtt__buf_get.exit26, label %.lr.ph.i.preheader

.lr.ph.i.preheader:                               ; preds = %stbtt__buf_get8.exit
  %21 = add nsw i32 %.sroa.6.1, 1
  %22 = mul nsw i32 %2, %20
  %23 = add nsw i32 %22, %21
  %24 = icmp slt i32 %23, 0
  %25 = tail call i32 @llvm.smin.i32(i32 %23, i32 %.sroa.18.8.extract.trunc)
  %..i.i = select i1 %24, i32 %.sroa.18.8.extract.trunc, i32 %25
  br label %.lr.ph.i

.lr.ph.i:                                         ; preds = %.lr.ph.i.preheader, %stbtt__buf_get8.exit.i13
  %.sroa.6.3 = phi i32 [ %.sroa.6.4, %stbtt__buf_get8.exit.i13 ], [ %..i.i, %.lr.ph.i.preheader ]
  %26 = phi i32 [ %34, %stbtt__buf_get8.exit.i13 ], [ %..i.i, %.lr.ph.i.preheader ]
  %.07.i10 = phi i32 [ %36, %stbtt__buf_get8.exit.i13 ], [ 0, %.lr.ph.i.preheader ]
  %.056.i11 = phi i32 [ %35, %stbtt__buf_get8.exit.i13 ], [ 0, %.lr.ph.i.preheader ]
  %27 = shl i32 %.056.i11, 8
  %.not.i.i12 = icmp slt i32 %26, %.sroa.18.8.extract.trunc
  br i1 %.not.i.i12, label %28, label %stbtt__buf_get8.exit.i13

28:                                               ; preds = %.lr.ph.i
  %29 = add nsw i32 %26, 1
  %30 = sext i32 %26 to i64
  %31 = getelementptr inbounds i8, ptr %0, i64 %30
  %32 = load i8, ptr %31, align 1, !tbaa !12
  %33 = zext i8 %32 to i32
  br label %stbtt__buf_get8.exit.i13

stbtt__buf_get8.exit.i13:                         ; preds = %28, %.lr.ph.i
  %.sroa.6.4 = phi i32 [ %29, %28 ], [ %.sroa.6.3, %.lr.ph.i ]
  %34 = phi i32 [ %29, %28 ], [ %26, %.lr.ph.i ]
  %.0.i.i14 = phi i32 [ %33, %28 ], [ 0, %.lr.ph.i ]
  %35 = or disjoint i32 %.0.i.i14, %27
  %36 = add nuw nsw i32 %.07.i10, 1
  %exitcond.not.i15 = icmp eq i32 %36, %20
  br i1 %exitcond.not.i15, label %.lr.ph.i18, label %.lr.ph.i, !llvm.loop !13

.lr.ph.i18:                                       ; preds = %stbtt__buf_get8.exit.i13, %stbtt__buf_get8.exit.i23
  %37 = phi i32 [ %45, %stbtt__buf_get8.exit.i23 ], [ %.sroa.6.4, %stbtt__buf_get8.exit.i13 ]
  %.07.i20 = phi i32 [ %47, %stbtt__buf_get8.exit.i23 ], [ 0, %stbtt__buf_get8.exit.i13 ]
  %.056.i21 = phi i32 [ %46, %stbtt__buf_get8.exit.i23 ], [ 0, %stbtt__buf_get8.exit.i13 ]
  %38 = shl i32 %.056.i21, 8
  %.not.i.i22 = icmp slt i32 %37, %.sroa.18.8.extract.trunc
  br i1 %.not.i.i22, label %39, label %stbtt__buf_get8.exit.i23

39:                                               ; preds = %.lr.ph.i18
  %40 = add nsw i32 %37, 1
  %41 = sext i32 %37 to i64
  %42 = getelementptr inbounds i8, ptr %0, i64 %41
  %43 = load i8, ptr %42, align 1, !tbaa !12
  %44 = zext i8 %43 to i32
  br label %stbtt__buf_get8.exit.i23

stbtt__buf_get8.exit.i23:                         ; preds = %39, %.lr.ph.i18
  %45 = phi i32 [ %40, %39 ], [ %37, %.lr.ph.i18 ]
  %.0.i.i24 = phi i32 [ %44, %39 ], [ 0, %.lr.ph.i18 ]
  %46 = or disjoint i32 %.0.i.i24, %38
  %47 = add nuw nsw i32 %.07.i20, 1
  %exitcond.not.i25 = icmp eq i32 %47, %20
  br i1 %exitcond.not.i25, label %stbtt__buf_get.exit26, label %.lr.ph.i18, !llvm.loop !13

stbtt__buf_get.exit26:                            ; preds = %stbtt__buf_get8.exit.i23, %stbtt__buf_get.exit, %stbtt__buf_get8.exit
  %.0.i48 = phi i32 [ 0, %stbtt__buf_get8.exit ], [ 0, %stbtt__buf_get.exit ], [ %20, %stbtt__buf_get8.exit.i23 ]
  %.05.lcssa.i40 = phi i32 [ 0, %stbtt__buf_get8.exit ], [ 0, %stbtt__buf_get.exit ], [ %35, %stbtt__buf_get8.exit.i23 ]
  %.05.lcssa.i17 = phi i32 [ 0, %stbtt__buf_get8.exit ], [ 0, %stbtt__buf_get.exit ], [ %46, %stbtt__buf_get8.exit.i23 ]
  %48 = add nsw i32 %15, 1
  %49 = mul nsw i32 %.0.i48, %48
  %50 = add nsw i32 %49, 2
  %51 = add nsw i32 %50, %.05.lcssa.i40
  %52 = sub nsw i32 %.05.lcssa.i17, %.05.lcssa.i40
  %53 = or i32 %52, %51
  %or.cond.not.i = icmp sgt i32 %53, -1
  br i1 %or.cond.not.i, label %54, label %stbtt__buf_range.exit

54:                                               ; preds = %stbtt__buf_get.exit26
  %55 = icmp sgt i32 %51, %.sroa.18.8.extract.trunc
  %56 = sub nsw i32 %.sroa.18.8.extract.trunc, %51
  %57 = icmp sgt i32 %52, %56
  %or.cond.i = select i1 %55, i1 true, i1 %57
  br i1 %or.cond.i, label %stbtt__buf_range.exit, label %58

58:                                               ; preds = %54
  %59 = zext nneg i32 %51 to i64
  %60 = getelementptr inbounds nuw i8, ptr %0, i64 %59
  %61 = zext i32 %52 to i64
  %62 = shl nuw i64 %61, 32
  br label %stbtt__buf_range.exit

stbtt__buf_range.exit:                            ; preds = %stbtt__buf_get.exit26, %54, %58
  %.sroa.0.0.i = phi ptr [ null, %stbtt__buf_get.exit26 ], [ null, %54 ], [ %60, %58 ]
  %.sroa.5.0.i = phi i64 [ 0, %stbtt__buf_get.exit26 ], [ 0, %54 ], [ %62, %58 ]
  %.fca.0.insert.i = insertvalue { ptr, i64 } poison, ptr %.sroa.0.0.i, 0
  %.fca.1.insert.i = insertvalue { ptr, i64 } %.fca.0.insert.i, i64 %.sroa.5.0.i, 1
  ret { ptr, i64 } %.fca.1.insert.i
}